target datalayout = "e-m:e-p270:32:32-p271:32:32-p272:64:64-i64:64-i128:128-f80:128-n8:16:32:64-S128"
target triple = "x86_64-pc-linux-gnu"

%struct.ret_data_info = type { i16, i32, ptr, ptr }

@.str.7 = private unnamed_addr constant [41 x i8] c"Attach returned msg_rc=%d err=%d type=%d\00", align 1

; Function Attrs: nounwind uwtable
define dso_local void @_handle_response_msg_list(ptr noundef %0, ptr noundef %1) #0 {
  %3 = alloca ptr, align 8
  %4 = alloca ptr, align 8
  %5 = alloca ptr, align 8
  %6 = alloca ptr, align 8
  %7 = alloca i32, align 4
  store ptr %0, ptr %3, align 8
  store ptr %1, ptr %4, align 8
  call void @llvm.lifetime.start.p0(i64 8, ptr %5) #10
  call void @llvm.lifetime.start.p0(i64 8, ptr %6) #10
  store ptr null, ptr %6, align 8
  call void @llvm.lifetime.start.p0(i64 4, ptr %7) #10
  %8 = load ptr, ptr %3, align 8
  %9 = call ptr @list_iterator_create(ptr noundef %8)
  store ptr %9, ptr %5, align 8
  br label %10

10:                                               ; preds = %48, %2
  %11 = load ptr, ptr %5, align 8
  %12 = call ptr @list_next(ptr noundef %11)
  store ptr %12, ptr %6, align 8
  %13 = icmp ne ptr %12, null
  br i1 %13, label %14, label %57

14:                                               ; preds = %10
  %15 = load ptr, ptr %6, align 8
  %16 = getelementptr inbounds nuw %struct.ret_data_info, ptr %15, i32 0, i32 0
  %17 = load i16, ptr %16, align 8
  %18 = zext i16 %17 to i32
  %19 = load ptr, ptr %6, align 8
  %20 = getelementptr inbounds nuw %struct.ret_data_info, ptr %19, i32 0, i32 3
  %21 = load ptr, ptr %20, align 8
  %22 = call i32 @slurm_get_return_code(i32 noundef %18, ptr noundef %21)
  store i32 %22, ptr %7, align 4
  br label %23

23:                                               ; preds = %14
  br label %24

24:                                               ; preds = %23
  %25 = call i32 @get_log_level()
  %26 = icmp sge i32 %25, 5
  br i1 %26, label %27, label %36

27:                                               ; preds = %24
  %28 = load i32, ptr %7, align 4
  %29 = load ptr, ptr %6, align 8
  %30 = getelementptr inbounds nuw %struct.ret_data_info, ptr %29, i32 0, i32 1
  %31 = load i32, ptr %30, align 4
  %32 = load ptr, ptr %6, align 8
  %33 = getelementptr inbounds nuw %struct.ret_data_info, ptr %32, i32 0, i32 0
  %34 = load i16, ptr %33, align 8
  %35 = zext i16 %34 to i32
  call void (i32, ptr, ...) @log_var(i32 noundef 5, ptr noundef @.str.7, i32 noundef %28, i32 noundef %31, i32 noundef %35)
  br label %36

36:                                               ; preds = %27, %24
  br label %37

37:                                               ; preds = %36
  br label %38

38:                                               ; preds = %37
  br label %39

39:                                               ; preds = %38
  br label %40

40:                                               ; preds = %39
  %41 = load i32, ptr %7, align 4
  %42 = icmp ne i32 %41, 0
  br i1 %42, label %43, label %48

43:                                               ; preds = %40
  %44 = load ptr, ptr %6, align 8
  %45 = getelementptr inbounds nuw %struct.ret_data_info, ptr %44, i32 0, i32 1
  %46 = load i32, ptr %45, align 4
  %47 = call ptr @__errno_location() #14
  store i32 %46, ptr %47, align 4
  br label %48

48:                                               ; preds = %43, %40
  %49 = load ptr, ptr %6, align 8
  %50 = getelementptr inbounds nuw %struct.ret_data_info, ptr %49, i32 0, i32 0
  %51 = load i16, ptr %50, align 8
  %52 = zext i16 %51 to i32
  %53 = load ptr, ptr %6, align 8
  %54 = getelementptr inbounds nuw %struct.ret_data_info, ptr %53, i32 0, i32 3
  %55 = load ptr, ptr %54, align 8
  %56 = load ptr, ptr %4, align 8
  call void @_handle_response_msg(i32 noundef %52, ptr noundef %55, ptr noundef %56)
  br label %10, !llvm.loop !21

57:                                               ; preds = %10
  %58 = load ptr, ptr %5, align 8
  call void @list_iterator_destroy(ptr noundef %58)
  call void @llvm.lifetime.end.p0(i64 4, ptr %7) #10
  call void @llvm.lifetime.end.p0(i64 8, ptr %6) #10
  call void @llvm.lifetime.end.p0(i64 8, ptr %5) #10
  ret void
}