; Function Attrs: nounwind uwtable
define dso_local void @_handle_response_msg_list(ptr noundef %0, ptr noundef %1) local_unnamed_addr #0 {
  %3 = tail call ptr @list_iterator_create(ptr noundef %0) #14
  %4 = tail call ptr @list_next(ptr noundef %3) #14
  %.not13 = icmp eq ptr %4, null
  br i1 %.not13, label %._crit_edge, label %.lr.ph

.lr.ph:                                           ; preds = %2, %23
  %5 = phi ptr [ %27, %23 ], [ %4, %2 ]
  %6 = load i16, ptr %5, align 8
  %7 = zext i16 %6 to i32
  %8 = getelementptr inbounds nuw i8, ptr %5, i64 16
  %9 = load ptr, ptr %8, align 8
  %10 = tail call i32 @slurm_get_return_code(i32 noundef %7, ptr noundef %9) #14
  %11 = tail call i32 @get_log_level() #14
  %12 = icmp sgt i32 %11, 4
  br i1 %12, label %13, label %18

13:                                               ; preds = %.lr.ph
  %14 = getelementptr inbounds nuw i8, ptr %5, i64 4
  %15 = load i32, ptr %14, align 4
  %16 = load i16, ptr %5, align 8
  %17 = zext i16 %16 to i32
  tail call void (i32, ptr, ...) @log_var(i32 noundef 5, ptr noundef nonnull @.str.7, i32 noundef %10, i32 noundef %15, i32 noundef %17) #14
  br label %18

18:                                               ; preds = %13, %.lr.ph
  %.not12 = icmp eq i32 %10, 0
  br i1 %.not12, label %23, label %19

19:                                               ; preds = %18
  %20 = getelementptr inbounds nuw i8, ptr %5, i64 4
  %21 = load i32, ptr %20, align 4
  %22 = tail call ptr @__errno_location() #16
  store i32 %21, ptr %22, align 4
  br label %23

23:                                               ; preds = %19, %18
  %24 = load i16, ptr %5, align 8
  %25 = zext i16 %24 to i32
  %26 = load ptr, ptr %8, align 8
  tail call void @_handle_response_msg(i32 noundef %25, ptr noundef %26, ptr noundef %1)
  %27 = tail call ptr @list_next(ptr noundef %3) #14
  %.not = icmp eq ptr %27, null
  br i1 %.not, label %._crit_edge, label %.lr.ph, !llvm.loop !21

._crit_edge:                                      ; preds = %23, %2
  tail call void @list_iterator_destroy(ptr noundef %3) #14
  ret void
}